target datalayout = "e-m:e-p270:32:32-p271:32:32-p272:64:64-i64:64-i128:128-f80:128-n8:16:32:64-S128"
target triple = "x86_64-pc-linux-gnu"

@H5Z_init_g = external global i8, align 1
@H5_libterm_g = external global i8, align 1
@.str.1 = private unnamed_addr constant [101 x i8] c"generated/home/dtcxzyw/WorkSpace/Projects/compilers/llvm-opt-benchmark/bench/hdf5/hdf5/src/H5Znbit.c\00", align 1
@__func__.H5Z__can_apply_nbit = private unnamed_addr constant [20 x i8] c"H5Z__can_apply_nbit\00", align 1
@H5E_ARGS_g = external global i64, align 8
@H5E_BADTYPE_g = external global i64, align 8
@.str.2 = private unnamed_addr constant [15 x i8] c"not a datatype\00", align 1
@H5E_PLINE_g = external global i64, align 8
@.str.3 = private unnamed_addr constant [19 x i8] c"bad datatype class\00", align 1
@.str.4 = private unnamed_addr constant [18 x i8] c"bad datatype size\00", align 1

; Function Attrs: nounwind uwtable
define internal i32 @H5Z__can_apply_nbit(i64 noundef %0, i64 noundef %1, i64 noundef %2) #0 {
  %4 = alloca i64, align 8
  %5 = alloca i64, align 8
  %6 = alloca i64, align 8
  %7 = alloca ptr, align 8
  %8 = alloca i32, align 4
  %9 = alloca i8, align 1
  store i64 %0, ptr %4, align 8, !tbaa !3
  store i64 %1, ptr %5, align 8, !tbaa !3
  store i64 %2, ptr %6, align 8, !tbaa !3
  call void @llvm.lifetime.start.p0(i64 8, ptr %7) #6
  call void @llvm.lifetime.start.p0(i64 4, ptr %8) #6
  store i32 1, ptr %8, align 4, !tbaa !7
  call void @llvm.lifetime.start.p0(i64 1, ptr %9) #6
  store i8 0, ptr %9, align 1, !tbaa !9
  %10 = load i8, ptr @H5Z_init_g, align 1, !tbaa !9, !range !11, !noundef !12
  %11 = trunc i8 %10 to i1
  br i1 %11, label %16, label %12

12:                                               ; preds = %3
  %13 = load i8, ptr @H5_libterm_g, align 1, !tbaa !9, !range !11, !noundef !12
  %14 = trunc i8 %13 to i1
  %15 = xor i1 %14, true
  br label %16

16:                                               ; preds = %12, %3
  %17 = phi i1 [ true, %3 ], [ %15, %12 ]
  %18 = xor i1 %17, true
  %19 = xor i1 %18, true
  %20 = zext i1 %19 to i32
  %21 = sext i32 %20 to i64
  %22 = call i64 @llvm.expect.i64(i64 %21, i64 1)
  %23 = icmp ne i64 %22, 0
  br i1 %23, label %24, label %95

24:                                               ; preds = %16
  %25 = load i64, ptr %5, align 8, !tbaa !3
  %26 = call ptr @H5I_object_verify(i64 noundef %25, i32 noundef 3)
  store ptr %26, ptr %7, align 8, !tbaa !13
  %27 = icmp eq ptr null, %26
  br i1 %27, label %28, label %47

28:                                               ; preds = %24
  br label %29

29:                                               ; preds = %28
  br label %30

30:                                               ; preds = %29
  br label %31

31:                                               ; preds = %30
  %32 = load i64, ptr @H5E_ARGS_g, align 8, !tbaa !3
  %33 = load i64, ptr @H5E_BADTYPE_g, align 8, !tbaa !3
  %34 = call i32 (ptr, ptr, i32, i64, i64, ptr, ...) @H5E_printf_stack(ptr noundef @.str.1, ptr noundef @__func__.H5Z__can_apply_nbit, i32 noundef 129, i64 noundef %32, i64 noundef %33, ptr noundef @.str.2)
  br label %35

35:                                               ; preds = %31
  br label %36

36:                                               ; preds = %35
  store i8 1, ptr %9, align 1, !tbaa !9
  %37 = load i8, ptr %9, align 1, !tbaa !9, !range !11, !noundef !12
  %38 = trunc i8 %37 to i1
  %39 = zext i1 %38 to i8
  store i8 %39, ptr %9, align 1, !tbaa !9
  br label %40

40:                                               ; preds = %36
  br label %41

41:                                               ; preds = %40
  br label %42

42:                                               ; preds = %41
  store i32 -1, ptr %8, align 4, !tbaa !7
  br label %94

43:                                               ; No predecessors!
  br label %44

44:                                               ; preds = %43
  br label %45

45:                                               ; preds = %44
  br label %46

46:                                               ; preds = %45
  br label %47

47:                                               ; preds = %46, %24
  %48 = load ptr, ptr %7, align 8, !tbaa !13
  %49 = call i32 @H5T_get_class(ptr noundef %48, i32 noundef 1)
  %50 = icmp eq i32 %49, -1
  br i1 %50, label %51, label %70

51:                                               ; preds = %47
  br label %52

52:                                               ; preds = %51
  br label %53

53:                                               ; preds = %52
  br label %54

54:                                               ; preds = %53
  %55 = load i64, ptr @H5E_PLINE_g, align 8, !tbaa !3
  %56 = load i64, ptr @H5E_BADTYPE_g, align 8, !tbaa !3
  %57 = call i32 (ptr, ptr, i32, i64, i64, ptr, ...) @H5E_printf_stack(ptr noundef @.str.1, ptr noundef @__func__.H5Z__can_apply_nbit, i32 noundef 133, i64 noundef %55, i64 noundef %56, ptr noundef @.str.3)
  br label %58

58:                                               ; preds = %54
  br label %59

59:                                               ; preds = %58
  store i8 1, ptr %9, align 1, !tbaa !9
  %60 = load i8, ptr %9, align 1, !tbaa !9, !range !11, !noundef !12
  %61 = trunc i8 %60 to i1
  %62 = zext i1 %61 to i8
  store i8 %62, ptr %9, align 1, !tbaa !9
  br label %63

63:                                               ; preds = %59
  br label %64

64:                                               ; preds = %63
  br label %65

65:                                               ; preds = %64
  store i32 -1, ptr %8, align 4, !tbaa !7
  br label %94

66:                                               ; No predecessors!
  br label %67

67:                                               ; preds = %66
  br label %68

68:                                               ; preds = %67
  br label %69

69:                                               ; preds = %68
  br label %70

70:                                               ; preds = %69, %47
  %71 = load ptr, ptr %7, align 8, !tbaa !13
  %72 = call i64 @H5T_get_size(ptr noundef %71)
  %73 = icmp eq i64 %72, 0
  br i1 %73, label %74, label %93

74:                                               ; preds = %70
  br label %75

75:                                               ; preds = %74
  br label %76

76:                                               ; preds = %75
  br label %77

77:                                               ; preds = %76
  %78 = load i64, ptr @H5E_PLINE_g, align 8, !tbaa !3
  %79 = load i64, ptr @H5E_BADTYPE_g, align 8, !tbaa !3
  %80 = call i32 (ptr, ptr, i32, i64, i64, ptr, ...) @H5E_printf_stack(ptr noundef @.str.1, ptr noundef @__func__.H5Z__can_apply_nbit, i32 noundef 137, i64 noundef %78, i64 noundef %79, ptr noundef @.str.4)
  br label %81

81:                                               ; preds = %77
  br label %82

82:                                               ; preds = %81
  store i8 1, ptr %9, align 1, !tbaa !9
  %83 = load i8, ptr %9, align 1, !tbaa !9, !range !11, !noundef !12
  %84 = trunc i8 %83 to i1
  %85 = zext i1 %84 to i8
  store i8 %85, ptr %9, align 1, !tbaa !9
  br label %86

86:                                               ; preds = %82
  br label %87

87:                                               ; preds = %86
  br label %88

88:                                               ; preds = %87
  store i32 -1, ptr %8, align 4, !tbaa !7
  br label %94

89:                                               ; No predecessors!
  br label %90

90:                                               ; preds = %89
  br label %91

91:                                               ; preds = %90
  br label %92

92:                                               ; preds = %91
  br label %93

93:                                               ; preds = %92, %70
  br label %94

94:                                               ; preds = %93, %88, %65, %42
  br label %95

95:                                               ; preds = %94, %16
  %96 = load i32, ptr %8, align 4, !tbaa !7
  call void @llvm.lifetime.end.p0(i64 1, ptr %9) #6
  call void @llvm.lifetime.end.p0(i64 4, ptr %8) #6
  call void @llvm.lifetime.end.p0(i64 8, ptr %7) #6
  ret i32 %96
}