; Function Attrs: nounwind uwtable
define internal range(i32 -1, 2) i32 @H5Z__can_apply_nbit(i64 %0, i64 noundef %1, i64 %2) #0 {
  %4 = load i8, ptr @H5Z_init_g, align 1, !tbaa !3, !range !7, !noundef !8
  %5 = trunc nuw i8 %4 to i1
  %6 = load i8, ptr @H5_libterm_g, align 1, !range !7
  %7 = trunc nuw i8 %6 to i1
  %8 = xor i1 %7, true
  %9 = select i1 %5, i1 true, i1 %8
  br i1 %9, label %10, label %31, !prof !9

10:                                               ; preds = %3
  %11 = tail call ptr @H5I_object_verify(i64 noundef %1, i32 noundef 3) #8
  %12 = icmp eq ptr %11, null
  br i1 %12, label %13, label %17

13:                                               ; preds = %10
  %14 = load i64, ptr @H5E_ARGS_g, align 8, !tbaa !10
  %15 = load i64, ptr @H5E_BADTYPE_g, align 8, !tbaa !10
  %16 = tail call i32 (ptr, ptr, i32, i64, i64, ptr, ...) @H5E_printf_stack(ptr noundef nonnull @.str.1, ptr noundef nonnull @__func__.H5Z__can_apply_nbit, i32 noundef 129, i64 noundef %14, i64 noundef %15, ptr noundef nonnull @.str.2) #8
  br label %31

17:                                               ; preds = %10
  %18 = tail call i32 @H5T_get_class(ptr noundef nonnull %11, i32 noundef 1) #8
  %19 = icmp eq i32 %18, -1
  br i1 %19, label %20, label %24

20:                                               ; preds = %17
  %21 = load i64, ptr @H5E_PLINE_g, align 8, !tbaa !10
  %22 = load i64, ptr @H5E_BADTYPE_g, align 8, !tbaa !10
  %23 = tail call i32 (ptr, ptr, i32, i64, i64, ptr, ...) @H5E_printf_stack(ptr noundef nonnull @.str.1, ptr noundef nonnull @__func__.H5Z__can_apply_nbit, i32 noundef 133, i64 noundef %21, i64 noundef %22, ptr noundef nonnull @.str.3) #8
  br label %31

24:                                               ; preds = %17
  %25 = tail call i64 @H5T_get_size(ptr noundef nonnull %11) #8
  %26 = icmp eq i64 %25, 0
  br i1 %26, label %27, label %31

27:                                               ; preds = %24
  %28 = load i64, ptr @H5E_PLINE_g, align 8, !tbaa !10
  %29 = load i64, ptr @H5E_BADTYPE_g, align 8, !tbaa !10
  %30 = tail call i32 (ptr, ptr, i32, i64, i64, ptr, ...) @H5E_printf_stack(ptr noundef nonnull @.str.1, ptr noundef nonnull @__func__.H5Z__can_apply_nbit, i32 noundef 137, i64 noundef %28, i64 noundef %29, ptr noundef nonnull @.str.4) #8
  br label %31

31:                                               ; preds = %13, %20, %27, %24, %3
  %.0 = phi i32 [ -1, %13 ], [ -1, %20 ], [ -1, %27 ], [ 1, %24 ], [ 1, %3 ]
  ret i32 %.0
}